target datalayout = "e-m:e-p270:32:32-p271:32:32-p272:64:64-i64:64-i128:128-f80:128-n8:16:32:64-S128"
target triple = "x86_64-pc-linux-gnu"

%class.VarianceShadowMapping = type { %class.ShadowMapping.base, i32, i32, i32, i32, [4 x i8] }
%class.ShadowMapping.base = type <{ %class.DecorateShader, float, i32, i32, i32, i32 }>
%class.DecorateShader = type { ptr, i8, i32, i32, i32 }
%class.ShadowMapping = type <{ %class.DecorateShader, float, i32, i32, i32, i32, [4 x i8] }>
%class.QMessageLogger = type { %class.QMessageLogContext }
%class.QMessageLogContext = type { i32, i32, ptr, ptr, ptr }

@.str.11 = private unnamed_addr constant [8 x i8] c"default\00", align 1
@__glewBindFramebuffer = external global ptr, align 8
@__GLEW_EXT_framebuffer_object = external global i8, align 1
@.str.17 = private unnamed_addr constant [19 x i8] c"FBO not supported!\00", align 1
@__glewGenFramebuffers = external global ptr, align 8
@__glewCheckFramebufferStatus = external global ptr, align 8
@__glewGenRenderbuffers = external global ptr, align 8
@__glewBindRenderbuffer = external global ptr, align 8
@__glewRenderbufferStorage = external global ptr, align 8
@__glewFramebufferRenderbuffer = external global ptr, align 8

; Function Attrs: mustprogress nounwind uwtable
define linkonce_odr void @_ZN18QMessageLogContextC2EPKciS1_S1_(ptr noundef nonnull align 8 dereferenceable(32) %0, ptr noundef %1, i32 noundef %2, ptr noundef %3, ptr noundef %4) unnamed_addr #0 comdat align 2 {
  %6 = alloca ptr, align 8
  %7 = alloca ptr, align 8
  %8 = alloca i32, align 4
  %9 = alloca ptr, align 8
  %10 = alloca ptr, align 8
  store ptr %0, ptr %6, align 8
  store ptr %1, ptr %7, align 8
  store i32 %2, ptr %8, align 4
  store ptr %3, ptr %9, align 8
  store ptr %4, ptr %10, align 8
  %11 = load ptr, ptr %6, align 8
  %12 = getelementptr inbounds %class.QMessageLogContext, ptr %11, i32 0, i32 0
  store i32 2, ptr %12, align 8
  %13 = getelementptr inbounds %class.QMessageLogContext, ptr %11, i32 0, i32 1
  %14 = load i32, ptr %8, align 4
  store i32 %14, ptr %13, align 4
  %15 = getelementptr inbounds %class.QMessageLogContext, ptr %11, i32 0, i32 2
  %16 = load ptr, ptr %7, align 8
  store ptr %16, ptr %15, align 8
  %17 = getelementptr inbounds %class.QMessageLogContext, ptr %11, i32 0, i32 3
  %18 = load ptr, ptr %9, align 8
  store ptr %18, ptr %17, align 8
  %19 = getelementptr inbounds %class.QMessageLogContext, ptr %11, i32 0, i32 4
  %20 = load ptr, ptr %10, align 8
  store ptr %20, ptr %19, align 8
  ret void
}

; Function Attrs: mustprogress uwtable
define linkonce_odr void @_ZN14DecorateShader23genDepthRenderBufferEXTERj(ptr noundef nonnull align 8 dereferenceable(24) %0, ptr noundef nonnull align 4 dereferenceable(4) %1) #1 comdat align 2 {
  %3 = alloca ptr, align 8
  %4 = alloca ptr, align 8
  store ptr %0, ptr %3, align 8
  store ptr %1, ptr %4, align 8
  %5 = load ptr, ptr %3, align 8
  %6 = load ptr, ptr @__glewGenRenderbuffers, align 8
  %7 = load ptr, ptr %4, align 8
  call void %6(i32 noundef 1, ptr noundef %7)
  %8 = load ptr, ptr @__glewBindRenderbuffer, align 8
  %9 = load ptr, ptr %4, align 8
  %10 = load i32, ptr %9, align 4
  call void %8(i32 noundef 36161, i32 noundef %10)
  %11 = load ptr, ptr @__glewRenderbufferStorage, align 8
  %12 = getelementptr inbounds %class.DecorateShader, ptr %5, i32 0, i32 2
  %13 = load i32, ptr %12, align 4
  %14 = getelementptr inbounds %class.DecorateShader, ptr %5, i32 0, i32 3
  %15 = load i32, ptr %14, align 8
  call void %11(i32 noundef 36161, i32 noundef 6402, i32 noundef %13, i32 noundef %15)
  %16 = load ptr, ptr @__glewFramebufferRenderbuffer, align 8
  %17 = load ptr, ptr %4, align 8
  %18 = load i32, ptr %17, align 4
  call void %16(i32 noundef 36160, i32 noundef 36096, i32 noundef 36161, i32 noundef %18)
  ret void
}

; Function Attrs: mustprogress nounwind uwtable
define linkonce_odr void @_ZN14QMessageLoggerC2EPKciS1_(ptr noundef nonnull align 8 dereferenceable(32) %0, ptr noundef %1, i32 noundef %2, ptr noundef %3) unnamed_addr #0 comdat align 2 {
  %5 = alloca ptr, align 8
  %6 = alloca ptr, align 8
  %7 = alloca i32, align 4
  %8 = alloca ptr, align 8
  store ptr %0, ptr %5, align 8
  store ptr %1, ptr %6, align 8
  store i32 %2, ptr %7, align 4
  store ptr %3, ptr %8, align 8
  %9 = load ptr, ptr %5, align 8
  %10 = getelementptr inbounds %class.QMessageLogger, ptr %9, i32 0, i32 0
  %11 = load ptr, ptr %6, align 8
  %12 = load i32, ptr %7, align 4
  %13 = load ptr, ptr %8, align 8
  call void @_ZN18QMessageLogContextC2EPKciS1_S1_(ptr noundef nonnull align 8 dereferenceable(32) %10, ptr noundef %11, i32 noundef %12, ptr noundef %13, ptr noundef @.str.11) #5
  ret void
}

; Function Attrs: mustprogress uwtable
define noundef zeroext i1 @_ZN21VarianceShadowMapping5setupEv(ptr noundef nonnull align 8 dereferenceable(60) %0) unnamed_addr #1 align 2 {
  %2 = alloca i1, align 1
  %3 = alloca ptr, align 8
  %4 = alloca %class.QMessageLogger, align 8
  %5 = alloca i32, align 4
  store ptr %0, ptr %3, align 8
  %6 = load ptr, ptr %3, align 8
  %7 = load i8, ptr @__GLEW_EXT_framebuffer_object, align 1
  %8 = icmp ne i8 %7, 0
  br i1 %8, label %10, label %9

9:                                                ; preds = %1
  call void @_ZN14QMessageLoggerC2EPKciS1_(ptr noundef nonnull align 8 dereferenceable(32) %4, ptr noundef null, i32 noundef 0, ptr noundef null)
  call void (ptr, ptr, ...) @_ZNK14QMessageLogger7warningEPKcz(ptr noundef nonnull align 8 dereferenceable(32) %4, ptr noundef @.str.17) #18
  store i1 false, ptr %2, align 1
  br label %33

10:                                               ; preds = %1
  %11 = getelementptr inbounds %class.DecorateShader, ptr %6, i32 0, i32 1
  %12 = load i8, ptr %11, align 8
  %13 = trunc i8 %12 to i1
  br i1 %13, label %14, label %15

14:                                               ; preds = %10
  store i1 true, ptr %2, align 1
  br label %33

15:                                               ; preds = %10
  %16 = load ptr, ptr @__glewGenFramebuffers, align 8
  %17 = getelementptr inbounds %class.DecorateShader, ptr %6, i32 0, i32 4
  call void %16(i32 noundef 1, ptr noundef %17)
  %18 = load ptr, ptr @__glewBindFramebuffer, align 8
  %19 = getelementptr inbounds %class.DecorateShader, ptr %6, i32 0, i32 4
  %20 = load i32, ptr %19, align 4
  call void %18(i32 noundef 36160, i32 noundef %20)
  %21 = getelementptr inbounds %class.ShadowMapping, ptr %6, i32 0, i32 2
  call void @_ZN14DecorateShader18genColorTextureEXTERjj(ptr noundef nonnull align 8 dereferenceable(24) %6, ptr noundef nonnull align 4 dereferenceable(4) %21, i32 noundef 36064)
  %22 = getelementptr inbounds %class.VarianceShadowMapping, ptr %6, i32 0, i32 1
  call void @_ZN14DecorateShader23genDepthRenderBufferEXTERj(ptr noundef nonnull align 8 dereferenceable(24) %6, ptr noundef nonnull align 4 dereferenceable(4) %22)
  %23 = load ptr, ptr @__glewCheckFramebufferStatus, align 8
  %24 = call i32 %23(i32 noundef 36160)
  store i32 %24, ptr %5, align 4
  %25 = load i32, ptr %5, align 4
  %26 = icmp eq i32 %25, 36053
  %27 = getelementptr inbounds %class.DecorateShader, ptr %6, i32 0, i32 1
  %28 = zext i1 %26 to i8
  store i8 %28, ptr %27, align 8
  %29 = load ptr, ptr @__glewBindFramebuffer, align 8
  call void %29(i32 noundef 36160, i32 noundef 0)
  %30 = getelementptr inbounds %class.DecorateShader, ptr %6, i32 0, i32 1
  %31 = load i8, ptr %30, align 8
  %32 = trunc i8 %31 to i1
  store i1 %32, ptr %2, align 1
  br label %33

33:                                               ; preds = %15, %14, %9
  %34 = load i1, ptr %2, align 1
  ret i1 %34
}