; Function Attrs: mustprogress uwtable
define noundef zeroext i1 @_ZN21VarianceShadowMapping5setupEv(ptr noundef nonnull align 8 dereferenceable(60) %0) unnamed_addr #1 align 2 {
  %2 = alloca %class.QMessageLogger, align 8
  %3 = load i8, ptr @__GLEW_EXT_framebuffer_object, align 1
  %.not = icmp eq i8 %3, 0
  br i1 %.not, label %4, label %7

4:                                                ; preds = %1
  store i32 2, ptr %2, align 8
  %5 = getelementptr inbounds i8, ptr %2, i64 4
  %6 = getelementptr inbounds i8, ptr %2, i64 24
  call void @llvm.memset.p0.i64(ptr noundef nonnull align 4 dereferenceable(20) %5, i8 0, i64 20, i1 false)
  store ptr @.str.11, ptr %6, align 8
  call void (ptr, ptr, ...) @_ZNK14QMessageLogger7warningEPKcz(ptr noundef nonnull align 8 dereferenceable(32) %2, ptr noundef nonnull @.str.17) #22
  br label %36

7:                                                ; preds = %1
  %8 = getelementptr inbounds i8, ptr %0, i64 8
  %9 = load i8, ptr %8, align 8
  %10 = and i8 %9, 1
  %.not2 = icmp eq i8 %10, 0
  br i1 %.not2, label %11, label %36

11:                                               ; preds = %7
  %12 = load ptr, ptr @__glewGenFramebuffers, align 8
  %13 = getelementptr inbounds i8, ptr %0, i64 20
  tail call void %12(i32 noundef 1, ptr noundef nonnull %13)
  %14 = load ptr, ptr @__glewBindFramebuffer, align 8
  %15 = load i32, ptr %13, align 4
  tail call void %14(i32 noundef 36160, i32 noundef %15)
  %16 = getelementptr inbounds i8, ptr %0, i64 28
  tail call void @_ZN14DecorateShader18genColorTextureEXTERjj(ptr noundef nonnull align 8 dereferenceable(24) %0, ptr noundef nonnull align 4 dereferenceable(4) %16, i32 noundef 36064)
  %17 = getelementptr inbounds i8, ptr %0, i64 44
  %18 = load ptr, ptr @__glewGenRenderbuffers, align 8
  tail call void %18(i32 noundef 1, ptr noundef nonnull %17)
  %19 = load ptr, ptr @__glewBindRenderbuffer, align 8
  %20 = load i32, ptr %17, align 4
  tail call void %19(i32 noundef 36161, i32 noundef %20)
  %21 = load ptr, ptr @__glewRenderbufferStorage, align 8
  %22 = getelementptr inbounds i8, ptr %0, i64 12
  %23 = load i32, ptr %22, align 4
  %24 = getelementptr inbounds i8, ptr %0, i64 16
  %25 = load i32, ptr %24, align 8
  tail call void %21(i32 noundef 36161, i32 noundef 6402, i32 noundef %23, i32 noundef %25)
  %26 = load ptr, ptr @__glewFramebufferRenderbuffer, align 8
  %27 = load i32, ptr %17, align 4
  tail call void %26(i32 noundef 36160, i32 noundef 36096, i32 noundef 36161, i32 noundef %27)
  %28 = load ptr, ptr @__glewCheckFramebufferStatus, align 8
  %29 = tail call i32 %28(i32 noundef 36160)
  %30 = icmp eq i32 %29, 36053
  %31 = zext i1 %30 to i8
  store i8 %31, ptr %8, align 8
  %32 = load ptr, ptr @__glewBindFramebuffer, align 8
  tail call void %32(i32 noundef 36160, i32 noundef 0)
  %33 = load i8, ptr %8, align 8
  %34 = and i8 %33, 1
  %35 = icmp ne i8 %34, 0
  br label %36

36:                                               ; preds = %7, %11, %4
  %.0 = phi i1 [ %35, %11 ], [ false, %4 ], [ true, %7 ]
  ret i1 %.0
}